(dp0
S'learning_rate'
p1
F0.0005566382508156414
sS'batch_size'
p2
I117
sS'bias_init_consts'
p3
(lp4
F0.8467094448071899
asS'weight_init_stddevs'
p5
(lp6
F0.04178105070217311
asS'penalty_type'
p7
S'l2'
p8
sS'dropouts'
p9
(lp10
F0.5
asS'bypass_dropouts'
p11
(lp12
F0.5
asS'layer_sizes'
p13
(lp14
I1543
asS'nb_epoch'
p15
I10
sS'bypass_bias_init_consts'
p16
(lp17
F0.828743553608613
asS'penalty'
p18
F0.05198516578816656
sS'bypass_layer_sizes'
p19
(lp20
I185
asS'bypass_weight_init_stddevs'
p21
(lp22
F0.0370783881505163
as.