(dp0
S'penalty'
p1
F0.1480942521248248
sS'bias_init_consts'
p2
(lp3
F1.0517939121587336
asS'weight_init_stddevs'
p4
(lp5
F0.021804954515210556
asS'penalty_type'
p6
S'l2'
p7
sS'layer_sizes'
p8
(lp9
I1784
asS'nb_epoch'
p10
I10
sS'dropouts'
p11
(lp12
F0.5
asS'learning_rate'
p13
F0.001452877229498745
sS'batch_size'
p14
I69
s.