(dp0
S'learning_rate'
p1
F0.0005440881386456129
sS'batch_size'
p2
I72
sS'bias_init_consts'
p3
(lp4
F1.9711462975769232
asS'weight_init_stddevs'
p5
(lp6
F0.02269319380373383
asS'penalty_type'
p7
S'l2'
p8
sS'dropouts'
p9
(lp10
F0.5
asS'bypass_dropouts'
p11
(lp12
F0.5
asS'layer_sizes'
p13
(lp14
I2904
asS'nb_epoch'
p15
I10
sS'bypass_bias_init_consts'
p16
(lp17
F1.3269721536243368
asS'penalty'
p18
F0.1527244607877295
sS'bypass_layer_sizes'
p19
(lp20
I198
asS'bypass_weight_init_stddevs'
p21
(lp22
F0.03089407556793585
as.