(dp0
S'reg_alpha'
p1
I0
sS'colsample_bylevel'
p2
I1
sS'scale_pos_weight'
p3
I1
sS'learning_rate'
p4
F0.0773987050712146
sS'max_delta_step'
p5
I1
sS'base_score'
p6
F0.5
sS'n_estimators'
p7
I19970
sS'seed'
p8
I2016
sS'early_stopping_rounds'
p9
I230
sS'colsample_bytree'
p10
F0.66
sS'min_child_weight'
p11
I5
sS'subsample'
p12
F0.53
sS'reg_lambda'
p13
I1
sS'max_depth'
p14
I4
sS'gamma'
p15
F0.0
s.