(dp0
S'penalty'
p1
F0.059094470804480465
sS'bias_init_consts'
p2
(lp3
F1.005096052432811
asS'weight_init_stddevs'
p4
(lp5
F0.023089873624610947
asS'penalty_type'
p6
S'l2'
p7
sS'layer_sizes'
p8
(lp9
I2153
asS'nb_epoch'
p10
I10
sS'dropouts'
p11
(lp12
F0.5
asS'learning_rate'
p13
F0.000882306104501323
sS'batch_size'
p14
I25
s.