(dp0
S'penalty'
p1
F0.12561093563281278
sS'bias_init_consts'
p2
(lp3
F0.5440388220352493
asS'weight_init_stddevs'
p4
(lp5
F0.020812554894304516
asS'penalty_type'
p6
S'l2'
p7
sS'layer_sizes'
p8
(lp9
I1044
asS'nb_epoch'
p10
I10
sS'dropouts'
p11
(lp12
F0.5
asS'learning_rate'
p13
F0.001018833191628599
sS'batch_size'
p14
I64
s.