(dp0
S'penalty'
p1
F0.0007242390624879118
sS'bias_init_consts'
p2
(lp3
F0.5381569800717005
aF1.1424298463778497
asS'weight_init_stddevs'
p4
(lp5
F0.027429978038451222
aF0.010812091047371132
asS'penalty_type'
p6
S'l2'
p7
sS'layer_sizes'
p8
(lp9
I762
aI986
asS'nb_epoch'
p10
I50
sS'dropouts'
p11
(lp12
F0.25
aF0.25
asS'learning_rate'
p13
F0.0008318682940949506
sS'batch_size'
p14
I239
s.