(dp0
S'penalty'
p1
F0.00047904873141221377
sS'bias_init_consts'
p2
(lp3
F1.5197934307271428
aF0.9731925656209204
asS'weight_init_stddevs'
p4
(lp5
F0.033693439502247985
aF0.034284201182101896
asS'penalty_type'
p6
S'l2'
p7
sS'layer_sizes'
p8
(lp9
I1528
aI677
asS'nb_epoch'
p10
I50
sS'dropouts'
p11
(lp12
F0.25
aF0.25
asS'learning_rate'
p13
F0.0011060473053062056
sS'batch_size'
p14
I122
s.