(dp0
S'penalty'
p1
F0.00053612693830884
sS'bias_init_consts'
p2
(lp3
F0.7126943815669228
aF1.5092861466431975
asS'weight_init_stddevs'
p4
(lp5
F0.013754621148342298
aF0.010504721958640691
asS'penalty_type'
p6
S'l2'
p7
sS'layer_sizes'
p8
(lp9
I577
aI1402
asS'nb_epoch'
p10
I50
sS'dropouts'
p11
(lp12
F0.25
aF0.25
asS'learning_rate'
p13
F0.0014402745439237503
sS'batch_size'
p14
I218
s.