(dp0
S'penalty'
p1
F0.0005548210749260093
sS'bias_init_consts'
p2
(lp3
F1.5004233130695706
aF1.6929219577365533
asS'weight_init_stddevs'
p4
(lp5
F0.02004968484876655
aF0.03176256049416453
asS'penalty_type'
p6
S'l2'
p7
sS'layer_sizes'
p8
(lp9
I524
aI1548
asS'nb_epoch'
p10
I50
sS'dropouts'
p11
(lp12
F0.25
aF0.25
asS'learning_rate'
p13
F0.0007165281009057483
sS'batch_size'
p14
I228
s.