(dp0
S'penalty'
p1
F0.0
sS'bias_init_consts'
p2
(lp3
F0.0
aF0.0
aF0.0
asS'weight_init_stddevs'
p4
(lp5
F0.056710114899178876
aF0.17319815824948853
aF0.14256414086639593
asS'penalty_type'
p6
S'l2'
p7
sS'layer_sizes'
p8
(lp9
I255
aI123
aI61
asS'fit_transformers'
p10
cdeepchem.trans.transformers
CoulombFitTransformer
p11
sS'nb_epoch'
p12
I50
sS'dropouts'
p13
(lp14
F0.01
aF0.01
aF0.01
asS'learning_rate'
p15
F0.001840922860928017
sS'batch_size'
p16
I21
s.