(dp0
S'penalty'
p1
F0.0
sS'bias_init_consts'
p2
(lp3
F0.0
aF0.0
aF0.0
asS'weight_init_stddevs'
p4
(lp5
F0.04302089128877567
aF0.061684705216884864
aF0.09310186108953719
asS'penalty_type'
p6
S'l2'
p7
sS'layer_sizes'
p8
(lp9
I466
aI50
aI171
asS'fit_transformers'
p10
cdeepchem.trans.transformers
CoulombFitTransformer
p11
sS'nb_epoch'
p12
I50
sS'dropouts'
p13
(lp14
F0.01
aF0.01
aF0.01
asS'learning_rate'
p15
F0.0011830096894090698
sS'batch_size'
p16
I42
s.