(dp0
S'penalty'
p1
F0.0
sS'bias_init_consts'
p2
(lp3
F0.0
aF0.0
aF0.0
asS'weight_init_stddevs'
p4
(lp5
F0.05060208230717542
aF0.050821659380544136
aF0.10315812488823396
asS'penalty_type'
p6
S'l2'
p7
sS'layer_sizes'
p8
(lp9
I703
aI161
aI72
asS'fit_transformers'
p10
cdeepchem.trans.transformers
CoulombFitTransformer
p11
sS'nb_epoch'
p12
I50
sS'dropouts'
p13
(lp14
F0.01
aF0.01
aF0.01
asS'learning_rate'
p15
F0.0011326278785576624
sS'batch_size'
p16
I35
s.