(dp0
S'learning_rate'
p1
F0.0004409004181307733
sS'batch_size'
p2
I54
sS'bias_init_consts'
p3
(lp4
F1.2436895852045906
asS'weight_init_stddevs'
p5
(lp6
F0.034892148982749546
asS'penalty_type'
p7
S'l2'
p8
sS'dropouts'
p9
(lp10
F0.5
asS'bypass_dropouts'
p11
(lp12
F0.5
asS'layer_sizes'
p13
(lp14
I1470
asS'nb_epoch'
p15
I10
sS'bypass_bias_init_consts'
p16
(lp17
F1.2446785164935465
asS'penalty'
p18
F0.055118841016660425
sS'bypass_layer_sizes'
p19
(lp20
I321
asS'bypass_weight_init_stddevs'
p21
(lp22
F0.02242312047328424
as.