(dp0
S'learning_rate'
p1
F0.0007970680683289802
sS'batch_size'
p2
I90
sS'bias_init_consts'
p3
(lp4
F0.8085491244329651
asS'weight_init_stddevs'
p5
(lp6
F0.06518617640534902
asS'penalty_type'
p7
S'l2'
p8
sS'dropouts'
p9
(lp10
F0.5
asS'bypass_dropouts'
p11
(lp12
F0.5
asS'layer_sizes'
p13
(lp14
I817
asS'nb_epoch'
p15
I10
sS'bypass_bias_init_consts'
p16
(lp17
F0.954062395761957
asS'penalty'
p18
F0.031564805765373474
sS'bypass_layer_sizes'
p19
(lp20
I160
asS'bypass_weight_init_stddevs'
p21
(lp22
F0.04032173346493187
as.