(dp0
S'penalty'
p1
F0.05391995559149316
sS'bias_init_consts'
p2
(lp3
F0.6044931182911968
asS'weight_init_stddevs'
p4
(lp5
F0.014617780745656353
asS'penalty_type'
p6
S'l2'
p7
sS'layer_sizes'
p8
(lp9
I1633
asS'nb_epoch'
p10
I10
sS'dropouts'
p11
(lp12
F0.5
asS'learning_rate'
p13
F0.0007776393411308875
sS'batch_size'
p14
I63
s.